target datalayout = "e-m:e-p270:32:32-p271:32:32-p272:64:64-i64:64-i128:128-f80:128-n8:16:32:64-S128"
target triple = "x86_64-pc-linux-gnu"

%"class.nanobind::handle" = type { ptr }
%class.anon.526 = type { i8 }
%"struct.nanobind::detail::tuple.528" = type { %"struct.nanobind::detail::type_caster.529" }
%"struct.nanobind::detail::type_caster.529" = type { i32 }

; Function Attrs: alwaysinline mustprogress nounwind optsize uwtable
define linkonce_odr hidden noundef ptr @_ZNK8nanobind6handle3ptrEv(ptr noundef nonnull align 8 dereferenceable(8) %0) #8 comdat align 2 {
  %2 = alloca ptr, align 8
  store ptr %0, ptr %2, align 8, !tbaa !20
  %3 = load ptr, ptr %2, align 8
  %4 = getelementptr inbounds nuw %"class.nanobind::handle", ptr %3, i32 0, i32 0
  %5 = load ptr, ptr %4, align 8, !tbaa !22
  ret ptr %5
}

; Function Attrs: alwaysinline mustprogress nounwind optsize uwtable
define linkonce_odr hidden ptr @_ZN8nanobind6detail11type_casterIjiE8from_cppEjNS_9rv_policyEPNS0_12cleanup_listE(i32 noundef %0, i32 noundef %1, ptr noundef %2) #8 comdat align 2 personality ptr @__gxx_personality_v0 {
  %4 = alloca %"class.nanobind::handle", align 8
  %5 = alloca i32, align 4
  %6 = alloca i32, align 4
  %7 = alloca ptr, align 8
  store i32 %0, ptr %5, align 4, !tbaa !12
  store i32 %1, ptr %6, align 4, !tbaa !113
  store ptr %2, ptr %7, align 8, !tbaa !115
  %8 = load i32, ptr %5, align 4, !tbaa !12
  %9 = zext i32 %8 to i64
  %10 = invoke ptr @PyLong_FromUnsignedLong(i64 noundef %9) #21
          to label %11 unwind label %15

11:                                               ; preds = %3
  invoke void @_ZN8nanobind6handleC2EPK7_object(ptr noundef nonnull align 8 dereferenceable(8) %4, ptr noundef %10) #21
          to label %12 unwind label %15

12:                                               ; preds = %11
  %13 = getelementptr inbounds nuw %"class.nanobind::handle", ptr %4, i32 0, i32 0
  %14 = load ptr, ptr %13, align 8
  ret ptr %14

15:                                               ; preds = %11, %3
  %16 = landingpad { ptr, i32 }
          catch ptr null
  %17 = extractvalue { ptr, i32 } %16, 0
  call void @__clang_call_terminate(ptr %17) #22
  unreachable
}

; Function Attrs: inlinehint mustprogress nounwind optsize uwtable
define internal noundef i32 @"_ZZL32nanobind_init_test_functions_extRN8nanobind7module_EENK4$_70clEj"(ptr noundef nonnull align 1 dereferenceable(1) %0, i32 noundef %1) #12 align 2 {
  %3 = alloca ptr, align 8
  %4 = alloca i32, align 4
  store ptr %0, ptr %3, align 8, !tbaa !26
  store i32 %1, ptr %4, align 4, !tbaa !12
  %5 = load i32, ptr %4, align 4, !tbaa !12
  ret i32 %5
}

; Function Attrs: mustprogress nounwind optsize uwtable
define linkonce_odr hidden noundef nonnull align 4 dereferenceable(4) ptr @_ZN8nanobind6detail11type_casterIjiEcvOjEv(ptr noundef nonnull align 4 dereferenceable(4) %0) #2 comdat align 2 {
  %2 = alloca ptr, align 8
  store ptr %0, ptr %2, align 8, !tbaa !667
  %3 = load ptr, ptr %2, align 8
  %4 = getelementptr inbounds nuw %"struct.nanobind::detail::type_caster.529", ptr %3, i32 0, i32 0
  ret ptr %4
}

; Function Attrs: alwaysinline mustprogress nounwind optsize uwtable
define linkonce_odr hidden noundef zeroext i1 @_ZN8nanobind6detail11type_casterIjiE11from_pythonENS_6handleEhPNS0_12cleanup_listE(ptr noundef nonnull align 4 dereferenceable(4) %0, ptr %1, i8 noundef zeroext %2, ptr noundef %3) #8 comdat align 2 {
  %5 = alloca %"class.nanobind::handle", align 8
  %6 = alloca ptr, align 8
  %7 = alloca i8, align 1
  %8 = alloca ptr, align 8
  %9 = getelementptr inbounds nuw %"class.nanobind::handle", ptr %5, i32 0, i32 0
  store ptr %1, ptr %9, align 8
  store ptr %0, ptr %6, align 8, !tbaa !667
  store i8 %2, ptr %7, align 1, !tbaa !106
  store ptr %3, ptr %8, align 8, !tbaa !115
  %10 = load ptr, ptr %6, align 8
  %11 = call noundef ptr @_ZNK8nanobind6handle3ptrEv(ptr noundef nonnull align 8 dereferenceable(8) %5) #21
  %12 = load i8, ptr %7, align 1, !tbaa !106
  %13 = getelementptr inbounds nuw %"struct.nanobind::detail::type_caster.529", ptr %10, i32 0, i32 0
  %14 = call noundef zeroext i1 @_ZN8nanobind6detail8load_u32EP7_objecthPj(ptr noundef %11, i8 noundef zeroext %12, ptr noundef %13) #20
  ret i1 %14
}

; Function Attrs: alwaysinline mustprogress nounwind optsize uwtable
define linkonce_odr hidden void @_ZN8nanobind6handleC2EPK7_object(ptr noundef nonnull align 8 dereferenceable(8) %0, ptr noundef %1) unnamed_addr #8 comdat align 2 {
  %3 = alloca ptr, align 8
  %4 = alloca ptr, align 8
  store ptr %0, ptr %3, align 8, !tbaa !20
  store ptr %1, ptr %4, align 8, !tbaa !14
  %5 = load ptr, ptr %3, align 8
  %6 = getelementptr inbounds nuw %"class.nanobind::handle", ptr %5, i32 0, i32 0
  %7 = load ptr, ptr %4, align 8, !tbaa !14
  store ptr %7, ptr %6, align 8, !tbaa !22
  ret void
}

; Function Attrs: alwaysinline mustprogress nounwind optsize uwtable
define linkonce_odr hidden noundef nonnull align 4 dereferenceable(4) ptr @_ZN8nanobind6detail5tupleIJNS0_11type_casterIjiEEEE3getILm0EEERDav(ptr noundef nonnull align 4 dereferenceable(4) %0) #8 comdat align 2 {
  %2 = alloca ptr, align 8
  store ptr %0, ptr %2, align 8, !tbaa !665
  %3 = load ptr, ptr %2, align 8
  %4 = getelementptr inbounds nuw %"struct.nanobind::detail::tuple.528", ptr %3, i32 0, i32 0
  ret ptr %4
}

; Function Attrs: alwaysinline mustprogress optsize uwtable
define internal noundef ptr @"_ZZN8nanobind6detail11func_createILb0ELb1EZL32nanobind_init_test_functions_extRNS_7module_EE4$_70jJjEJLm0EEJNS_5scopeENS_4nameEEEEP7_objectOT1_PFT2_DpT3_ESt16integer_sequenceImJXspT4_EEEDpRKT5_ENKUlPvPS8_PhNS_9rv_policyEPNS0_12cleanup_listEE_clESM_SN_SO_SP_SR_"(ptr noundef nonnull align 1 dereferenceable(1) %0, ptr noundef %1, ptr noundef %2, ptr noundef %3, i32 noundef %4, ptr noundef %5) #6 align 2 {
  %7 = alloca ptr, align 8
  %8 = alloca ptr, align 8
  %9 = alloca ptr, align 8
  %10 = alloca ptr, align 8
  %11 = alloca ptr, align 8
  %12 = alloca i32, align 4
  %13 = alloca ptr, align 8
  %14 = alloca ptr, align 8
  %15 = alloca %"struct.nanobind::detail::tuple.528", align 4
  %16 = alloca %"class.nanobind::handle", align 8
  %17 = alloca i32, align 4
  %18 = alloca ptr, align 8
  %19 = alloca %"class.nanobind::handle", align 8
  store ptr %0, ptr %8, align 8, !tbaa !26
  store ptr %1, ptr %9, align 8, !tbaa !26
  store ptr %2, ptr %10, align 8, !tbaa !146
  store ptr %3, ptr %11, align 8, !tbaa !57
  store i32 %4, ptr %12, align 4, !tbaa !113
  store ptr %5, ptr %13, align 8, !tbaa !115
  call void @llvm.lifetime.start.p0(i64 8, ptr %14) #1
  %20 = load ptr, ptr %9, align 8, !tbaa !26
  store ptr %20, ptr %14, align 8, !tbaa !663
  call void @llvm.lifetime.start.p0(i64 4, ptr %15) #1
  %21 = call noundef nonnull align 4 dereferenceable(4) ptr @_ZN8nanobind6detail5tupleIJNS0_11type_casterIjiEEEE3getILm0EEERDav(ptr noundef nonnull align 4 dereferenceable(4) %15) #21
  %22 = load ptr, ptr %10, align 8, !tbaa !146
  %23 = getelementptr inbounds nuw ptr, ptr %22, i64 0
  %24 = load ptr, ptr %23, align 8, !tbaa !14
  call void @_ZN8nanobind6handleC2EPK7_object(ptr noundef nonnull align 8 dereferenceable(8) %16, ptr noundef %24) #21
  %25 = load ptr, ptr %11, align 8, !tbaa !57
  %26 = getelementptr inbounds nuw i8, ptr %25, i64 0
  %27 = load i8, ptr %26, align 1, !tbaa !106
  %28 = load ptr, ptr %13, align 8, !tbaa !115
  %29 = getelementptr inbounds nuw %"class.nanobind::handle", ptr %16, i32 0, i32 0
  %30 = load ptr, ptr %29, align 8
  %31 = call noundef zeroext i1 @_ZN8nanobind6detail11type_casterIjiE11from_pythonENS_6handleEhPNS0_12cleanup_listE(ptr noundef nonnull align 4 dereferenceable(4) %21, ptr %30, i8 noundef zeroext %27, ptr noundef %28) #20
  br i1 %31, label %33, label %32

32:                                               ; preds = %6
  store ptr inttoptr (i64 1 to ptr), ptr %7, align 8
  store i32 1, ptr %17, align 4
  br label %45

33:                                               ; preds = %6
  call void @llvm.lifetime.start.p0(i64 8, ptr %18) #1
  call void @llvm.lifetime.start.p0(i64 8, ptr %19) #1
  %34 = load ptr, ptr %14, align 8, !tbaa !663
  %35 = call noundef nonnull align 4 dereferenceable(4) ptr @_ZN8nanobind6detail5tupleIJNS0_11type_casterIjiEEEE3getILm0EEERDav(ptr noundef nonnull align 4 dereferenceable(4) %15) #21
  %36 = call noundef nonnull align 4 dereferenceable(4) ptr @_ZN8nanobind6detail11type_casterIjiEcvOjEv(ptr noundef nonnull align 4 dereferenceable(4) %35) #21
  %37 = load i32, ptr %36, align 4, !tbaa !12
  %38 = call noundef i32 @"_ZZL32nanobind_init_test_functions_extRN8nanobind7module_EENK4$_70clEj"(ptr noundef nonnull align 1 dereferenceable(1) %34, i32 noundef %37) #21
  %39 = load i32, ptr %12, align 4, !tbaa !113
  %40 = load ptr, ptr %13, align 8, !tbaa !115
  %41 = call ptr @_ZN8nanobind6detail11type_casterIjiE8from_cppEjNS_9rv_policyEPNS0_12cleanup_listE(i32 noundef %38, i32 noundef %39, ptr noundef %40) #20
  %42 = getelementptr inbounds nuw %"class.nanobind::handle", ptr %19, i32 0, i32 0
  store ptr %41, ptr %42, align 8
  %43 = call noundef ptr @_ZNK8nanobind6handle3ptrEv(ptr noundef nonnull align 8 dereferenceable(8) %19) #21
  store ptr %43, ptr %18, align 8, !tbaa !14
  call void @llvm.lifetime.end.p0(i64 8, ptr %19) #1
  %44 = load ptr, ptr %18, align 8, !tbaa !14
  store ptr %44, ptr %7, align 8
  store i32 1, ptr %17, align 4
  call void @llvm.lifetime.end.p0(i64 8, ptr %18) #1
  br label %45

45:                                               ; preds = %33, %32
  call void @llvm.lifetime.end.p0(i64 4, ptr %15) #1
  call void @llvm.lifetime.end.p0(i64 8, ptr %14) #1
  %46 = load ptr, ptr %7, align 8
  ret ptr %46
}

; Function Attrs: inlinehint mustprogress optsize uwtable
define internal noundef ptr @"_ZZN8nanobind6detail11func_createILb0ELb1EZL32nanobind_init_test_functions_extRNS_7module_EE4$_70jJjEJLm0EEJNS_5scopeENS_4nameEEEEP7_objectOT1_PFT2_DpT3_ESt16integer_sequenceImJXspT4_EEEDpRKT5_ENUlPvPS8_PhNS_9rv_policyEPNS0_12cleanup_listEE_8__invokeESM_SN_SO_SP_SR_"(ptr noundef %0, ptr noundef %1, ptr noundef %2, i32 noundef %3, ptr noundef %4) #11 align 2 {
  %6 = alloca ptr, align 8
  %7 = alloca ptr, align 8
  %8 = alloca ptr, align 8
  %9 = alloca i32, align 4
  %10 = alloca ptr, align 8
  %11 = alloca %class.anon.526, align 1
  store ptr %0, ptr %6, align 8, !tbaa !26
  store ptr %1, ptr %7, align 8, !tbaa !146
  store ptr %2, ptr %8, align 8, !tbaa !57
  store i32 %3, ptr %9, align 4, !tbaa !113
  store ptr %4, ptr %10, align 8, !tbaa !115
  %12 = load ptr, ptr %6, align 8, !tbaa !26
  %13 = load ptr, ptr %7, align 8, !tbaa !146
  %14 = load ptr, ptr %8, align 8, !tbaa !57
  %15 = load i32, ptr %9, align 4, !tbaa !113
  %16 = load ptr, ptr %10, align 8, !tbaa !115
  %17 = call noundef ptr @"_ZZN8nanobind6detail11func_createILb0ELb1EZL32nanobind_init_test_functions_extRNS_7module_EE4$_70jJjEJLm0EEJNS_5scopeENS_4nameEEEEP7_objectOT1_PFT2_DpT3_ESt16integer_sequenceImJXspT4_EEEDpRKT5_ENKUlPvPS8_PhNS_9rv_policyEPNS0_12cleanup_listEE_clESM_SN_SO_SP_SR_"(ptr noundef nonnull align 1 dereferenceable(1) %11, ptr noundef %12, ptr noundef %13, ptr noundef %14, i32 noundef %15, ptr noundef %16) #21
  ret ptr %17
}